; ModuleID = 'source-C-CXX/14/621.c'
source_filename = "source-C-CXX/14/621.c"
target datalayout = "e-m:e-p270:32:32-p271:32:32-p272:64:64-i64:64-f80:128-n8:16:32:64-S128"
target triple = "x86_64-pc-linux-gnu"

@.str = private unnamed_addr constant [3 x i8] c"%d\00", align 1
@.str.1 = private unnamed_addr constant [5 x i8] c"\0A%ld\00", align 1

; Function Attrs: nofree nounwind sspstrong uwtable
define dso_local i32 @main() local_unnamed_addr #0 {
  %1 = alloca i32, align 4
  %2 = alloca i32, align 4
  %3 = bitcast i32* %1 to i8*
  call void @llvm.lifetime.start.p0i8(i64 4, i8* nonnull %3) #3
  %4 = bitcast i32* %2 to i8*
  call void @llvm.lifetime.start.p0i8(i64 4, i8* nonnull %4) #3
  %5 = call i32 (i8*, ...) @__isoc99_scanf(i8* getelementptr inbounds ([3 x i8], [3 x i8]* @.str, i64 0, i64 0), i32* nonnull %2)
  br label %6

6:                                                ; preds = %6, %0
  %7 = phi i32 [ 0, %0 ], [ %28, %6 ]
  %8 = phi i32 [ 0, %0 ], [ %24, %6 ]
  %9 = phi i32 [ 0, %0 ], [ %12, %6 ]
  %10 = phi i32 [ 0, %0 ], [ %20, %6 ]
  %11 = call i32 (i8*, ...) @__isoc99_scanf(i8* getelementptr inbounds ([3 x i8], [3 x i8]* @.str, i64 0, i64 0), i32* nonnull %1)
  %12 = add nuw nsw i32 %9, 1
  %13 = load i32, i32* %1, align 4, !tbaa !5
  %14 = icmp eq i32 %13, 0
  %15 = icmp eq i32 %8, 0
  %16 = select i1 %14, i1 %15, i1 false
  %17 = icmp eq i32 %7, 0
  %18 = select i1 %16, i1 %17, i1 false
  %19 = zext i1 %18 to i32
  %20 = add nuw nsw i32 %10, %19
  %21 = icmp eq i32 %7, 1
  %22 = select i1 %21, i1 %14, i1 false
  %23 = zext i1 %22 to i32
  %24 = add nuw nsw i32 %8, %23
  %25 = icmp ne i32 %13, 0
  %26 = icmp ne i32 %20, 0
  %27 = select i1 %25, i1 %26, i1 false
  %28 = select i1 %27, i32 1, i32 %7
  %29 = load i32, i32* %2, align 4, !tbaa !5
  %30 = mul nsw i32 %29, %29
  %31 = icmp ult i32 %12, %30
  br i1 %31, label %6, label %32, !llvm.loop !9

32:                                               ; preds = %6
  %33 = add nsw i32 %20, -2
  %34 = sub nsw i32 %24, %20
  %35 = mul nsw i32 %33, %34
  %36 = sdiv i32 %35, 2
  %37 = sext i32 %36 to i64
  %38 = call i32 (i8*, ...) @printf(i8* nonnull dereferenceable(1) getelementptr inbounds ([5 x i8], [5 x i8]* @.str.1, i64 0, i64 0), i64 %37)
  call void @llvm.lifetime.end.p0i8(i64 4, i8* nonnull %4) #3
  call void @llvm.lifetime.end.p0i8(i64 4, i8* nonnull %3) #3
  ret i32 0
}

; Function Attrs: argmemonly mustprogress nofree nosync nounwind willreturn
declare void @llvm.lifetime.start.p0i8(i64 immarg, i8* nocapture) #1

; Function Attrs: nofree nounwind
declare noundef i32 @__isoc99_scanf(i8* nocapture noundef readonly, ...) local_unnamed_addr #2

; Function Attrs: nofree nounwind
declare noundef i32 @printf(i8* nocapture noundef readonly, ...) local_unnamed_addr #2

; Function Attrs: argmemonly mustprogress nofree nosync nounwind willreturn
declare void @llvm.lifetime.end.p0i8(i64 immarg, i8* nocapture) #1


!llvm.module.flags = !{!0, !1, !2, !3}
!llvm.ident = !{!4}

!0 = !{i32 1, !"wchar_size", i32 4}
!1 = !{i32 7, !"PIC Level", i32 2}
!2 = !{i32 7, !"PIE Level", i32 2}
!3 = !{i32 7, !"uwtable", i32 1}
!4 = !{!"clang version 13.0.0"}
!5 = !{!6, !6, i64 0}
!6 = !{!"int", !7, i64 0}
!7 = !{!"omnipotent char", !8, i64 0}
!8 = !{!"Simple C/C++ TBAA"}
!9 = distinct !{!9, !10}
!10 = !{!"llvm.loop.mustprogress"}
